target datalayout = "e-m:e-p270:32:32-p271:32:32-p272:64:64-i64:64-i128:128-f80:128-n8:16:32:64-S128"
target triple = "x86_64-pc-linux-gnu"

%struct.Aig_Man_t_ = type { ptr, ptr, ptr, ptr, ptr, ptr, ptr, %struct.Aig_Obj_t_, i32, i32, i32, i32, i32, i32, [7 x i32], i32, ptr, i32, ptr, i32, ptr, i32, i32, i32, ptr, i32, i32, i32, i32, i32, ptr, ptr, i32, ptr, ptr, i32, ptr, ptr, i32, i32, i32, ptr, ptr, ptr, ptr, ptr, ptr, ptr, ptr, ptr, ptr, ptr, ptr, ptr, ptr, i32, ptr, ptr, ptr, ptr, i32, i64, i64, i64, ptr, ptr }
%struct.Aig_Obj_t_ = type { %union.anon, ptr, ptr, i64, i32, i32, %union.anon.0 }
%union.anon = type { ptr }
%union.anon.0 = type { ptr }
%struct.Vec_Ptr_t_ = type { i32, i32, ptr }

@.str.1 = private unnamed_addr constant [51 x i8] c"Regs = %d. Fanins = %d. Const0 = %d. Const1 = %d.\0A\00", align 1

; Function Attrs: inlinehint nounwind uwtable
define internal i32 @Aig_IsComplement(ptr noundef %0) #3 {
  %2 = alloca ptr, align 8
  store ptr %0, ptr %2, align 8, !tbaa !32
  %3 = load ptr, ptr %2, align 8, !tbaa !32
  %4 = ptrtoint ptr %3 to i64
  %5 = and i64 %4, 1
  %6 = trunc i64 %5 to i32
  ret i32 %6
}

; Function Attrs: inlinehint nounwind uwtable
define internal ptr @Aig_Regular(ptr noundef %0) #3 {
  %2 = alloca ptr, align 8
  store ptr %0, ptr %2, align 8, !tbaa !32
  %3 = load ptr, ptr %2, align 8, !tbaa !32
  %4 = ptrtoint ptr %3 to i64
  %5 = and i64 %4, -2
  %6 = inttoptr i64 %5 to ptr
  ret ptr %6
}

; Function Attrs: inlinehint nounwind uwtable
define internal void @Aig_ObjSetTravIdCurrent(ptr noundef %0, ptr noundef %1) #3 {
  %3 = alloca ptr, align 8
  %4 = alloca ptr, align 8
  store ptr %0, ptr %3, align 8, !tbaa !3
  store ptr %1, ptr %4, align 8, !tbaa !32
  %5 = load ptr, ptr %3, align 8, !tbaa !3
  %6 = getelementptr inbounds nuw %struct.Aig_Man_t_, ptr %5, i32 0, i32 38
  %7 = load i32, ptr %6, align 8, !tbaa !55
  %8 = load ptr, ptr %4, align 8, !tbaa !32
  %9 = getelementptr inbounds nuw %struct.Aig_Obj_t_, ptr %8, i32 0, i32 4
  store i32 %7, ptr %9, align 8, !tbaa !54
  ret void
}

; Function Attrs: inlinehint nounwind uwtable
define internal i32 @Aig_ObjIsTravIdCurrent(ptr noundef %0, ptr noundef %1) #3 {
  %3 = alloca ptr, align 8
  %4 = alloca ptr, align 8
  store ptr %0, ptr %3, align 8, !tbaa !3
  store ptr %1, ptr %4, align 8, !tbaa !32
  %5 = load ptr, ptr %4, align 8, !tbaa !32
  %6 = getelementptr inbounds nuw %struct.Aig_Obj_t_, ptr %5, i32 0, i32 4
  %7 = load i32, ptr %6, align 8, !tbaa !54
  %8 = load ptr, ptr %3, align 8, !tbaa !3
  %9 = getelementptr inbounds nuw %struct.Aig_Man_t_, ptr %8, i32 0, i32 38
  %10 = load i32, ptr %9, align 8, !tbaa !55
  %11 = icmp eq i32 %7, %10
  %12 = zext i1 %11 to i32
  ret i32 %12
}

; Function Attrs: inlinehint nounwind uwtable
define internal i32 @Aig_ObjFaninC0(ptr noundef %0) #3 {
  %2 = alloca ptr, align 8
  store ptr %0, ptr %2, align 8, !tbaa !32
  %3 = load ptr, ptr %2, align 8, !tbaa !32
  %4 = getelementptr inbounds nuw %struct.Aig_Obj_t_, ptr %3, i32 0, i32 1
  %5 = load ptr, ptr %4, align 8, !tbaa !57
  %6 = call i32 @Aig_IsComplement(ptr noundef %5)
  ret i32 %6
}

; Function Attrs: inlinehint nounwind uwtable
define internal i32 @Aig_ObjIsConst1(ptr noundef %0) #3 {
  %2 = alloca ptr, align 8
  store ptr %0, ptr %2, align 8, !tbaa !32
  %3 = load ptr, ptr %2, align 8, !tbaa !32
  %4 = getelementptr inbounds nuw %struct.Aig_Obj_t_, ptr %3, i32 0, i32 3
  %5 = load i64, ptr %4, align 8
  %6 = and i64 %5, 7
  %7 = trunc i64 %6 to i32
  %8 = icmp eq i32 %7, 1
  %9 = zext i1 %8 to i32
  ret i32 %9
}

; Function Attrs: inlinehint nounwind uwtable
define internal ptr @Aig_ObjFanin0(ptr noundef %0) #3 {
  %2 = alloca ptr, align 8
  store ptr %0, ptr %2, align 8, !tbaa !32
  %3 = load ptr, ptr %2, align 8, !tbaa !32
  %4 = getelementptr inbounds nuw %struct.Aig_Obj_t_, ptr %3, i32 0, i32 1
  %5 = load ptr, ptr %4, align 8, !tbaa !57
  %6 = call ptr @Aig_Regular(ptr noundef %5)
  ret ptr %6
}

; Function Attrs: inlinehint nounwind uwtable
define internal ptr @Vec_PtrEntry(ptr noundef %0, i32 noundef %1) #3 {
  %3 = alloca ptr, align 8
  %4 = alloca i32, align 4
  store ptr %0, ptr %3, align 8, !tbaa !8
  store i32 %1, ptr %4, align 4, !tbaa !30
  %5 = load ptr, ptr %3, align 8, !tbaa !8
  %6 = getelementptr inbounds nuw %struct.Vec_Ptr_t_, ptr %5, i32 0, i32 2
  %7 = load ptr, ptr %6, align 8, !tbaa !51
  %8 = load i32, ptr %4, align 4, !tbaa !30
  %9 = sext i32 %8 to i64
  %10 = getelementptr inbounds ptr, ptr %7, i64 %9
  %11 = load ptr, ptr %10, align 8, !tbaa !52
  ret ptr %11
}

; Function Attrs: inlinehint nounwind uwtable
define internal i32 @Vec_PtrSize(ptr noundef %0) #3 {
  %2 = alloca ptr, align 8
  store ptr %0, ptr %2, align 8, !tbaa !8
  %3 = load ptr, ptr %2, align 8, !tbaa !8
  %4 = getelementptr inbounds nuw %struct.Vec_Ptr_t_, ptr %3, i32 0, i32 1
  %5 = load i32, ptr %4, align 4, !tbaa !49
  ret i32 %5
}

; Function Attrs: inlinehint nounwind uwtable
define internal i32 @Aig_ManRegNum(ptr noundef %0) #3 {
  %2 = alloca ptr, align 8
  store ptr %0, ptr %2, align 8, !tbaa !3
  %3 = load ptr, ptr %2, align 8, !tbaa !3
  %4 = getelementptr inbounds nuw %struct.Aig_Man_t_, ptr %3, i32 0, i32 8
  %5 = load i32, ptr %4, align 8, !tbaa !53
  ret i32 %5
}

; Function Attrs: inlinehint nounwind uwtable
define internal i32 @Aig_ManCoNum(ptr noundef %0) #3 {
  %2 = alloca ptr, align 8
  store ptr %0, ptr %2, align 8, !tbaa !3
  %3 = load ptr, ptr %2, align 8, !tbaa !3
  %4 = getelementptr inbounds nuw %struct.Aig_Man_t_, ptr %3, i32 0, i32 14
  %5 = getelementptr inbounds [7 x i32], ptr %4, i64 0, i64 3
  %6 = load i32, ptr %5, align 4, !tbaa !30
  ret i32 %6
}

; Function Attrs: nounwind uwtable
define i32 @Aig_ManCountMergeRegs(ptr noundef %0) #0 {
  %2 = alloca ptr, align 8
  %3 = alloca ptr, align 8
  %4 = alloca ptr, align 8
  %5 = alloca i32, align 4
  %6 = alloca i32, align 4
  %7 = alloca i32, align 4
  %8 = alloca i32, align 4
  store ptr %0, ptr %2, align 8, !tbaa !3
  call void @llvm.lifetime.start.p0(i64 8, ptr %3) #10
  call void @llvm.lifetime.start.p0(i64 8, ptr %4) #10
  call void @llvm.lifetime.start.p0(i64 4, ptr %5) #10
  call void @llvm.lifetime.start.p0(i64 4, ptr %6) #10
  store i32 0, ptr %6, align 4, !tbaa !30
  call void @llvm.lifetime.start.p0(i64 4, ptr %7) #10
  store i32 0, ptr %7, align 4, !tbaa !30
  call void @llvm.lifetime.start.p0(i64 4, ptr %8) #10
  store i32 0, ptr %8, align 4, !tbaa !30
  %9 = load ptr, ptr %2, align 8, !tbaa !3
  call void @Aig_ManIncrementTravId(ptr noundef %9)
  %10 = load ptr, ptr %2, align 8, !tbaa !3
  %11 = call i32 @Aig_ManCoNum(ptr noundef %10)
  %12 = load ptr, ptr %2, align 8, !tbaa !3
  %13 = call i32 @Aig_ManRegNum(ptr noundef %12)
  %14 = sub nsw i32 %11, %13
  store i32 %14, ptr %5, align 4, !tbaa !30
  br label %15

15:                                               ; preds = %58, %1
  %16 = load i32, ptr %5, align 4, !tbaa !30
  %17 = load ptr, ptr %2, align 8, !tbaa !3
  %18 = getelementptr inbounds nuw %struct.Aig_Man_t_, ptr %17, i32 0, i32 3
  %19 = load ptr, ptr %18, align 8, !tbaa !40
  %20 = call i32 @Vec_PtrSize(ptr noundef %19)
  %21 = icmp slt i32 %16, %20
  br i1 %21, label %22, label %28

22:                                               ; preds = %15
  %23 = load ptr, ptr %2, align 8, !tbaa !3
  %24 = getelementptr inbounds nuw %struct.Aig_Man_t_, ptr %23, i32 0, i32 3
  %25 = load ptr, ptr %24, align 8, !tbaa !40
  %26 = load i32, ptr %5, align 4, !tbaa !30
  %27 = call ptr @Vec_PtrEntry(ptr noundef %25, i32 noundef %26)
  store ptr %27, ptr %3, align 8, !tbaa !32
  br label %28

28:                                               ; preds = %22, %15
  %29 = phi i1 [ false, %15 ], [ true, %22 ]
  br i1 %29, label %30, label %61

30:                                               ; preds = %28
  %31 = load ptr, ptr %3, align 8, !tbaa !32
  %32 = call ptr @Aig_ObjFanin0(ptr noundef %31)
  store ptr %32, ptr %4, align 8, !tbaa !32
  %33 = load ptr, ptr %4, align 8, !tbaa !32
  %34 = call i32 @Aig_ObjIsConst1(ptr noundef %33)
  %35 = icmp ne i32 %34, 0
  br i1 %35, label %36, label %47

36:                                               ; preds = %30
  %37 = load ptr, ptr %3, align 8, !tbaa !32
  %38 = call i32 @Aig_ObjFaninC0(ptr noundef %37)
  %39 = icmp ne i32 %38, 0
  br i1 %39, label %40, label %43

40:                                               ; preds = %36
  %41 = load i32, ptr %7, align 4, !tbaa !30
  %42 = add nsw i32 %41, 1
  store i32 %42, ptr %7, align 4, !tbaa !30
  br label %46

43:                                               ; preds = %36
  %44 = load i32, ptr %8, align 4, !tbaa !30
  %45 = add nsw i32 %44, 1
  store i32 %45, ptr %8, align 4, !tbaa !30
  br label %46

46:                                               ; preds = %43, %40
  br label %47

47:                                               ; preds = %46, %30
  %48 = load ptr, ptr %2, align 8, !tbaa !3
  %49 = load ptr, ptr %4, align 8, !tbaa !32
  %50 = call i32 @Aig_ObjIsTravIdCurrent(ptr noundef %48, ptr noundef %49)
  %51 = icmp ne i32 %50, 0
  br i1 %51, label %52, label %53

52:                                               ; preds = %47
  br label %58

53:                                               ; preds = %47
  %54 = load ptr, ptr %2, align 8, !tbaa !3
  %55 = load ptr, ptr %4, align 8, !tbaa !32
  call void @Aig_ObjSetTravIdCurrent(ptr noundef %54, ptr noundef %55)
  %56 = load i32, ptr %6, align 4, !tbaa !30
  %57 = add nsw i32 %56, 1
  store i32 %57, ptr %6, align 4, !tbaa !30
  br label %58

58:                                               ; preds = %53, %52
  %59 = load i32, ptr %5, align 4, !tbaa !30
  %60 = add nsw i32 %59, 1
  store i32 %60, ptr %5, align 4, !tbaa !30
  br label %15, !llvm.loop !76

61:                                               ; preds = %28
  %62 = load ptr, ptr %2, align 8, !tbaa !3
  %63 = call i32 @Aig_ManRegNum(ptr noundef %62)
  %64 = load i32, ptr %6, align 4, !tbaa !30
  %65 = load i32, ptr %7, align 4, !tbaa !30
  %66 = load i32, ptr %8, align 4, !tbaa !30
  %67 = call i32 (ptr, ...) @printf(ptr noundef @.str.1, i32 noundef %63, i32 noundef %64, i32 noundef %65, i32 noundef %66)
  call void @llvm.lifetime.end.p0(i64 4, ptr %8) #10
  call void @llvm.lifetime.end.p0(i64 4, ptr %7) #10
  call void @llvm.lifetime.end.p0(i64 4, ptr %6) #10
  call void @llvm.lifetime.end.p0(i64 4, ptr %5) #10
  call void @llvm.lifetime.end.p0(i64 8, ptr %4) #10
  call void @llvm.lifetime.end.p0(i64 8, ptr %3) #10
  ret i32 0
}