; Function Attrs: nounwind uwtable
define noundef i32 @Aig_ManCountMergeRegs(ptr noundef %0) local_unnamed_addr #0 {
  tail call void @Aig_ManIncrementTravId(ptr noundef %0) #15
  %2 = getelementptr i8, ptr %0, i64 140
  %.val37 = load i32, ptr %2, align 4, !tbaa !41
  %3 = getelementptr i8, ptr %0, i64 104
  %.val30 = load i32, ptr %3, align 8, !tbaa !42
  %4 = sub nsw i32 %.val37, %.val30
  %5 = getelementptr inbounds nuw i8, ptr %0, i64 24
  %6 = load ptr, ptr %5, align 8, !tbaa !46
  %7 = getelementptr i8, ptr %6, i64 4
  %.val = load i32, ptr %7, align 4, !tbaa !21
  %8 = icmp slt i32 %4, %.val
  br i1 %8, label %.lr.ph, label %.critedge

.lr.ph:                                           ; preds = %1
  %9 = getelementptr i8, ptr %6, i64 8
  %.val28 = load ptr, ptr %9, align 8, !tbaa !37
  %10 = getelementptr i8, ptr %0, i64 312
  %.val34 = load i32, ptr %10, align 8, !tbaa !51
  %11 = sext i32 %4 to i64
  br label %12

12:                                               ; preds = %.lr.ph, %31
  %indvars.iv = phi i64 [ %11, %.lr.ph ], [ %indvars.iv.next, %31 ]
  %.042 = phi i32 [ 0, %.lr.ph ], [ %.1, %31 ]
  %.02141 = phi i32 [ 0, %.lr.ph ], [ %.122, %31 ]
  %.02340 = phi i32 [ 0, %.lr.ph ], [ %.124, %31 ]
  %13 = getelementptr inbounds ptr, ptr %.val28, i64 %indvars.iv
  %14 = load ptr, ptr %13, align 8, !tbaa !38
  %15 = getelementptr i8, ptr %14, i64 8
  %.val32 = load ptr, ptr %15, align 8, !tbaa !47
  %16 = ptrtoint ptr %.val32 to i64
  %17 = and i64 %16, -2
  %18 = inttoptr i64 %17 to ptr
  %19 = getelementptr i8, ptr %18, i64 24
  %.val31 = load i64, ptr %19, align 8
  %20 = and i64 %.val31, 7
  %.not = icmp eq i64 %20, 1
  br i1 %.not, label %21, label %27

21:                                               ; preds = %12
  %22 = and i64 %16, 1
  %.not26 = icmp eq i64 %22, 0
  br i1 %.not26, label %25, label %23

23:                                               ; preds = %21
  %24 = add nsw i32 %.02141, 1
  br label %27

25:                                               ; preds = %21
  %26 = add nsw i32 %.042, 1
  br label %27

27:                                               ; preds = %23, %25, %12
  %.122 = phi i32 [ %24, %23 ], [ %.02141, %25 ], [ %.02141, %12 ]
  %.1 = phi i32 [ %.042, %23 ], [ %26, %25 ], [ %.042, %12 ]
  %28 = getelementptr i8, ptr %18, i64 32
  %.val35 = load i32, ptr %28, align 8, !tbaa !52
  %.not38 = icmp eq i32 %.val35, %.val34
  br i1 %.not38, label %31, label %29

29:                                               ; preds = %27
  store i32 %.val34, ptr %28, align 8, !tbaa !52
  %30 = add nsw i32 %.02340, 1
  br label %31

31:                                               ; preds = %27, %29
  %.124 = phi i32 [ %.02340, %27 ], [ %30, %29 ]
  %indvars.iv.next = add nsw i64 %indvars.iv, 1
  %lftr.wideiv = trunc i64 %indvars.iv.next to i32
  %exitcond.not = icmp eq i32 %.val, %lftr.wideiv
  br i1 %exitcond.not, label %.critedge, label %12, !llvm.loop !72

.critedge:                                        ; preds = %31, %1
  %.023.lcssa = phi i32 [ 0, %1 ], [ %.124, %31 ]
  %.021.lcssa = phi i32 [ 0, %1 ], [ %.122, %31 ]
  %.0.lcssa = phi i32 [ 0, %1 ], [ %.1, %31 ]
  %32 = tail call i32 (ptr, ...) @printf(ptr noundef nonnull dereferenceable(1) @.str.1, i32 noundef %.val30, i32 noundef %.023.lcssa, i32 noundef %.021.lcssa, i32 noundef %.0.lcssa)
  ret i32 0
}